; Function Attrs: nounwind uwtable
define dso_local void @context_change_scope_for_label(ptr noundef %0, i32 noundef %1) local_unnamed_addr #0 {
  %3 = getelementptr inbounds i8, ptr %0, i64 288
  %4 = load i32, ptr %3, align 8
  %5 = add i32 %4, 1
  %6 = icmp ugt i32 %5, 256
  br i1 %6, label %7, label %8

7:                                                ; preds = %2
  tail call void (ptr, ...) @error_exit(ptr noundef nonnull @.str, ptr noundef nonnull @.str.1, ptr noundef nonnull @__func__.context_change_scope_with_flags, ptr noundef nonnull @.str.2, i32 noundef 13) #9
  unreachable

8:                                                ; preds = %2
  %9 = getelementptr inbounds i8, ptr %0, i64 248
  %10 = getelementptr inbounds i8, ptr %0, i64 280
  %11 = getelementptr inbounds i8, ptr %0, i64 268
  %12 = load i32, ptr %11, align 4
  %13 = getelementptr inbounds i8, ptr %0, i64 64
  %14 = load i32, ptr %13, align 8
  %15 = add nsw i32 %14, 1
  store i32 %15, ptr %13, align 8
  store i32 %15, ptr %9, align 8
  %.sroa.2.0..sroa_idx.i = getelementptr inbounds i8, ptr %0, i64 252
  store i8 0, ptr %.sroa.2.0..sroa_idx.i, align 4
  %.sroa.10.0..sroa_idx.i = getelementptr inbounds i8, ptr %0, i64 272
  store i32 %12, ptr %.sroa.10.0..sroa_idx.i, align 8
  store i32 %5, ptr %3, align 8
  %16 = icmp eq i32 %15, 0
  br i1 %16, label %17, label %context_change_scope_with_flags.exit

17:                                               ; preds = %8
  tail call void (ptr, ...) @error_exit(ptr noundef nonnull @.str, ptr noundef nonnull @.str.3, ptr noundef nonnull @__func__.context_change_scope_with_flags, ptr noundef nonnull @.str.2, i32 noundef 50) #9
  unreachable

context_change_scope_with_flags.exit:             ; preds = %8
  %.not = icmp eq i32 %1, 0
  br i1 %.not, label %32, label %18

18:                                               ; preds = %context_change_scope_with_flags.exit
  %19 = load ptr, ptr @decl_arena, align 8
  %20 = zext i32 %1 to i64
  %21 = getelementptr inbounds %struct.Decl_, ptr %19, i64 %20
  %22 = getelementptr inbounds i8, ptr %21, i64 80
  store i32 %12, ptr %22, align 8
  %23 = tail call zeroext i1 @sema_add_local(ptr noundef nonnull %0, ptr noundef nonnull %21) #10
  %24 = load ptr, ptr %10, align 8
  %25 = load ptr, ptr @ast_arena, align 8
  %26 = ptrtoint ptr %24 to i64
  %27 = ptrtoint ptr %25 to i64
  %28 = sub i64 %26, %27
  %29 = sdiv exact i64 %28, 48
  %30 = trunc i64 %29 to i32
  %31 = getelementptr inbounds i8, ptr %21, i64 104
  store i32 %30, ptr %31, align 8
  br label %32

32:                                               ; preds = %18, %context_change_scope_with_flags.exit
  ret void
}